; ModuleID = '55/292.c'
source_filename = "55/292.c"
target datalayout = "e-m:e-p270:32:32-p271:32:32-p272:64:64-i64:64-f80:128-n8:16:32:64-S128"
target triple = "x86_64-pc-linux-gnu"

@__const.main.s1 = private unnamed_addr constant [80 x i8] c"0123456789ABCDEFGHIJKLMNOPQRSTUVWXYZ\00\00\00\00\00\00\00\00\00\00\00\00\00\00\00\00\00\00\00\00\00\00\00\00\00\00\00\00\00\00\00\00\00\00\00\00\00\00\00\00\00\00\00\00", align 16
@.str = private unnamed_addr constant [9 x i8] c"%d %s %d\00", align 1
@.str.1 = private unnamed_addr constant [3 x i8] c"%c\00", align 1
@.str.2 = private unnamed_addr constant [2 x i8] zeroinitializer, align 1

; Function Attrs: noinline nounwind uwtable
define dso_local i32 @main() #0 {
  %1 = alloca i32, align 4
  %2 = alloca i32, align 4
  %3 = alloca i32, align 4
  %4 = alloca i32, align 4
  %5 = alloca i32, align 4
  %6 = alloca i32, align 4
  %7 = alloca i32, align 4
  %8 = alloca [80 x i8], align 16
  %9 = alloca [80 x i8], align 16
  %10 = alloca [80 x i8], align 16
  store i32 0, i32* %1, align 4
  store i32 0, i32* %6, align 4
  store i32 0, i32* %7, align 4
  %11 = bitcast [80 x i8]* %10 to i8*
  call void @llvm.memcpy.p0i8.p0i8.i64(i8* align 16 %11, i8* align 16 getelementptr inbounds ([80 x i8], [80 x i8]* @__const.main.s1, i32 0, i32 0), i64 80, i1 false)
  %12 = getelementptr inbounds [80 x i8], [80 x i8]* %8, i64 0, i64 0
  %13 = call i32 (i8*, ...) @__isoc99_scanf(i8* getelementptr inbounds ([9 x i8], [9 x i8]* @.str, i64 0, i64 0), i32* %2, i8* %12, i32* %3)
  store i32 0, i32* %4, align 4
  br label %14

14:                                               ; preds = %73, %0
  %15 = load i32, i32* %4, align 4
  %16 = sext i32 %15 to i64
  %17 = getelementptr inbounds [80 x i8], [80 x i8]* %8, i64 0, i64 %16
  %18 = load i8, i8* %17, align 1
  %19 = sext i8 %18 to i32
  %20 = icmp ne i32 %19, 0
  br i1 %20, label %21, label %76

21:                                               ; preds = %14
  %22 = load i32, i32* %4, align 4
  %23 = sext i32 %22 to i64
  %24 = getelementptr inbounds [80 x i8], [80 x i8]* %8, i64 0, i64 %23
  %25 = load i8, i8* %24, align 1
  %26 = sext i8 %25 to i32
  %27 = icmp sge i32 %26, 97
  br i1 %27, label %28, label %46

28:                                               ; preds = %21
  %29 = load i32, i32* %4, align 4
  %30 = sext i32 %29 to i64
  %31 = getelementptr inbounds [80 x i8], [80 x i8]* %8, i64 0, i64 %30
  %32 = load i8, i8* %31, align 1
  %33 = sext i8 %32 to i32
  %34 = icmp sle i32 %33, 122
  br i1 %34, label %35, label %46

35:                                               ; preds = %28
  %36 = load i32, i32* %4, align 4
  %37 = sext i32 %36 to i64
  %38 = getelementptr inbounds [80 x i8], [80 x i8]* %8, i64 0, i64 %37
  %39 = load i8, i8* %38, align 1
  %40 = sext i8 %39 to i32
  %41 = sub nsw i32 %40, 32
  %42 = trunc i32 %41 to i8
  %43 = load i32, i32* %4, align 4
  %44 = sext i32 %43 to i64
  %45 = getelementptr inbounds [80 x i8], [80 x i8]* %8, i64 0, i64 %44
  store i8 %42, i8* %45, align 1
  br label %46

46:                                               ; preds = %35, %28, %21
  store i32 0, i32* %5, align 4
  br label %47

47:                                               ; preds = %69, %46
  %48 = load i32, i32* %5, align 4
  %49 = icmp slt i32 %48, 36
  br i1 %49, label %50, label %72

50:                                               ; preds = %47
  %51 = load i32, i32* %5, align 4
  %52 = sext i32 %51 to i64
  %53 = getelementptr inbounds [80 x i8], [80 x i8]* %10, i64 0, i64 %52
  %54 = load i8, i8* %53, align 1
  %55 = sext i8 %54 to i32
  %56 = load i32, i32* %4, align 4
  %57 = sext i32 %56 to i64
  %58 = getelementptr inbounds [80 x i8], [80 x i8]* %8, i64 0, i64 %57
  %59 = load i8, i8* %58, align 1
  %60 = sext i8 %59 to i32
  %61 = icmp eq i32 %55, %60
  br i1 %61, label %62, label %68

62:                                               ; preds = %50
  %63 = load i32, i32* %2, align 4
  %64 = load i32, i32* %6, align 4
  %65 = mul nsw i32 %63, %64
  %66 = load i32, i32* %5, align 4
  %67 = add nsw i32 %65, %66
  store i32 %67, i32* %6, align 4
  br label %68

68:                                               ; preds = %62, %50
  br label %69

69:                                               ; preds = %68
  %70 = load i32, i32* %5, align 4
  %71 = add nsw i32 %70, 1
  store i32 %71, i32* %5, align 4
  br label %47

72:                                               ; preds = %47
  br label %73

73:                                               ; preds = %72
  %74 = load i32, i32* %4, align 4
  %75 = add nsw i32 %74, 1
  store i32 %75, i32* %4, align 4
  br label %14

76:                                               ; preds = %14
  store i32 0, i32* %4, align 4
  br label %77

77:                                               ; preds = %96, %76
  %78 = load i32, i32* %6, align 4
  %79 = load i32, i32* %3, align 4
  %80 = srem i32 %78, %79
  %81 = sext i32 %80 to i64
  %82 = getelementptr inbounds [80 x i8], [80 x i8]* %10, i64 0, i64 %81
  %83 = load i8, i8* %82, align 1
  %84 = load i32, i32* %4, align 4
  %85 = sext i32 %84 to i64
  %86 = getelementptr inbounds [80 x i8], [80 x i8]* %9, i64 0, i64 %85
  store i8 %83, i8* %86, align 1
  %87 = load i32, i32* %7, align 4
  %88 = add nsw i32 %87, 1
  store i32 %88, i32* %7, align 4
  %89 = load i32, i32* %6, align 4
  %90 = load i32, i32* %3, align 4
  %91 = sdiv i32 %89, %90
  store i32 %91, i32* %6, align 4
  %92 = load i32, i32* %6, align 4
  %93 = icmp eq i32 %92, 0
  br i1 %93, label %94, label %95

94:                                               ; preds = %77
  br label %99

95:                                               ; preds = %77
  br label %96

96:                                               ; preds = %95
  %97 = load i32, i32* %4, align 4
  %98 = add nsw i32 %97, 1
  store i32 %98, i32* %4, align 4
  br label %77

99:                                               ; preds = %94
  %100 = load i32, i32* %7, align 4
  %101 = sub nsw i32 %100, 1
  store i32 %101, i32* %4, align 4
  br label %102

102:                                              ; preds = %112, %99
  %103 = load i32, i32* %4, align 4
  %104 = icmp sge i32 %103, 0
  br i1 %104, label %105, label %115

105:                                              ; preds = %102
  %106 = load i32, i32* %4, align 4
  %107 = sext i32 %106 to i64
  %108 = getelementptr inbounds [80 x i8], [80 x i8]* %9, i64 0, i64 %107
  %109 = load i8, i8* %108, align 1
  %110 = sext i8 %109 to i32
  %111 = call i32 (i8*, ...) @printf(i8* getelementptr inbounds ([3 x i8], [3 x i8]* @.str.1, i64 0, i64 0), i32 %110)
  br label %112

112:                                              ; preds = %105
  %113 = load i32, i32* %4, align 4
  %114 = add nsw i32 %113, -1
  store i32 %114, i32* %4, align 4
  br label %102

115:                                              ; preds = %102
  %116 = call i32 (i8*, ...) @printf(i8* getelementptr inbounds ([2 x i8], [2 x i8]* @.str.2, i64 0, i64 0))
  ret i32 0
}

; Function Attrs: argmemonly nounwind willreturn
declare void @llvm.memcpy.p0i8.p0i8.i64(i8* noalias nocapture writeonly, i8* noalias nocapture readonly, i64, i1 immarg) #1

declare dso_local i32 @__isoc99_scanf(i8*, ...) #2

declare dso_local i32 @printf(i8*, ...) #2


!llvm.module.flags = !{!0}
!llvm.ident = !{!1}

!0 = !{i32 1, !"wchar_size", i32 4}
!1 = !{!"clang version 10.0.0-4ubuntu1 "}
